target datalayout = "e-m:e-p270:32:32-p271:32:32-p272:64:64-i64:64-i128:128-f80:128-n8:16:32:64-S128"
target triple = "x86_64-pc-linux-gnu"

%struct.SHA3Context = type { %union.anon, i32, i32, i32, i32 }
%union.anon = type { [25 x i64], [1400 x i8] }

; Function Attrs: nounwind uwtable
define internal void @sha3AggFinal(ptr noundef %0) #0 {
  %2 = alloca ptr, align 8
  %3 = alloca ptr, align 8
  %4 = alloca i32, align 4
  store ptr %0, ptr %2, align 8, !tbaa !25
  call void @llvm.lifetime.start.p0(i64 8, ptr %3) #14
  %5 = load ptr, ptr %2, align 8, !tbaa !25
  %6 = call ptr @sqlite3_aggregate_context(ptr noundef %5, i32 noundef 1616)
  store ptr %6, ptr %3, align 8, !tbaa !31
  %7 = load ptr, ptr %3, align 8, !tbaa !31
  %8 = icmp eq ptr %7, null
  br i1 %8, label %9, label %10

9:                                                ; preds = %1
  store i32 1, ptr %4, align 4
  br label %24

10:                                               ; preds = %1
  %11 = load ptr, ptr %3, align 8, !tbaa !31
  %12 = getelementptr inbounds nuw %struct.SHA3Context, ptr %11, i32 0, i32 4
  %13 = load i32, ptr %12, align 4, !tbaa !35
  %14 = icmp ne i32 %13, 0
  br i1 %14, label %15, label %23

15:                                               ; preds = %10
  %16 = load ptr, ptr %2, align 8, !tbaa !25
  %17 = load ptr, ptr %3, align 8, !tbaa !31
  %18 = call ptr @SHA3Final(ptr noundef %17)
  %19 = load ptr, ptr %3, align 8, !tbaa !31
  %20 = getelementptr inbounds nuw %struct.SHA3Context, ptr %19, i32 0, i32 4
  %21 = load i32, ptr %20, align 4, !tbaa !35
  %22 = udiv i32 %21, 8
  call void @sqlite3_result_blob(ptr noundef %16, ptr noundef %18, i32 noundef %22, ptr noundef inttoptr (i64 -1 to ptr))
  br label %23

23:                                               ; preds = %15, %10
  store i32 0, ptr %4, align 4
  br label %24

24:                                               ; preds = %23, %9
  call void @llvm.lifetime.end.p0(i64 8, ptr %3) #14
  %25 = load i32, ptr %4, align 4
  switch i32 %25, label %27 [
    i32 0, label %26
    i32 1, label %26
  ]

26:                                               ; preds = %24, %24
  ret void

27:                                               ; preds = %24
  unreachable
}