; Function Attrs: nounwind uwtable
define internal void @sha3AggFinal(ptr noundef %0) #2 {
  %2 = tail call ptr @sqlite3_aggregate_context(ptr noundef %0, i32 noundef 1616) #43
  %3 = icmp eq ptr %2, null
  br i1 %3, label %11, label %4

4:                                                ; preds = %1
  %5 = getelementptr inbounds nuw i8, ptr %2, i64 1612
  %6 = load i32, ptr %5, align 4, !tbaa !20
  %.not = icmp eq i32 %6, 0
  br i1 %.not, label %11, label %7

7:                                                ; preds = %4
  %8 = tail call fastcc ptr @SHA3Final(ptr noundef %2)
  %9 = load i32, ptr %5, align 4, !tbaa !20
  %10 = lshr i32 %9, 3
  tail call void @sqlite3_result_blob(ptr noundef %0, ptr noundef nonnull %8, i32 noundef %10, ptr noundef nonnull inttoptr (i64 -1 to ptr)) #43
  br label %11

11:                                               ; preds = %4, %7, %1
  ret void
}